target datalayout = "e-m:e-p270:32:32-p271:32:32-p272:64:64-i64:64-i128:128-f80:128-n8:16:32:64-S128"
target triple = "x86_64-pc-linux-gnu"

@.str.16 = private unnamed_addr constant [26 x i8] c"../openssl/test/ct_test.c\00", align 1
@.str.53 = private unnamed_addr constant [45 x i8] c"abs((int)difftime(time(NULL), default_time))\00", align 1
@.str.54 = private unnamed_addr constant [15 x i8] c"time_tolerance\00", align 1

; Function Attrs: nounwind uwtable
define internal i32 @test_default_ct_policy_eval_ctx_time_is_now() #0 {
  %1 = alloca i32, align 4
  %2 = alloca ptr, align 8
  %3 = alloca i64, align 8
  %4 = alloca i64, align 8
  call void @llvm.lifetime.start.p0(i64 4, ptr %1) #9
  store i32 0, ptr %1, align 4, !tbaa !11
  call void @llvm.lifetime.start.p0(i64 8, ptr %2) #9
  %5 = call ptr @CT_POLICY_EVAL_CTX_new()
  store ptr %5, ptr %2, align 8, !tbaa !32
  call void @llvm.lifetime.start.p0(i64 8, ptr %3) #9
  %6 = load ptr, ptr %2, align 8, !tbaa !32
  %7 = call i64 @CT_POLICY_EVAL_CTX_get_time(ptr noundef %6)
  %8 = udiv i64 %7, 1000
  store i64 %8, ptr %3, align 8, !tbaa !28
  call void @llvm.lifetime.start.p0(i64 8, ptr %4) #9
  store i64 600, ptr %4, align 8, !tbaa !28
  %9 = call i64 @time(ptr noundef null) #9
  %10 = load i64, ptr %3, align 8, !tbaa !28
  %11 = call double @difftime(i64 noundef %9, i64 noundef %10) #10
  %12 = fptosi double %11 to i32
  %13 = call i32 @llvm.abs.i32(i32 %12, i1 true)
  %14 = sext i32 %13 to i64
  %15 = call i32 @test_time_t_le(ptr noundef @.str.16, i32 noundef 490, ptr noundef @.str.53, ptr noundef @.str.54, i64 noundef %14, i64 noundef 600)
  %16 = icmp ne i32 %15, 0
  br i1 %16, label %18, label %17

17:                                               ; preds = %0
  br label %19

18:                                               ; preds = %0
  store i32 1, ptr %1, align 4, !tbaa !11
  br label %19

19:                                               ; preds = %18, %17
  %20 = load ptr, ptr %2, align 8, !tbaa !32
  call void @CT_POLICY_EVAL_CTX_free(ptr noundef %20)
  %21 = load i32, ptr %1, align 4, !tbaa !11
  call void @llvm.lifetime.end.p0(i64 8, ptr %4) #9
  call void @llvm.lifetime.end.p0(i64 8, ptr %3) #9
  call void @llvm.lifetime.end.p0(i64 8, ptr %2) #9
  call void @llvm.lifetime.end.p0(i64 4, ptr %1) #9
  ret i32 %21
}