; Function Attrs: nounwind uwtable
define internal range(i32 0, 2) i32 @test_default_ct_policy_eval_ctx_time_is_now() #0 {
  %1 = tail call ptr @CT_POLICY_EVAL_CTX_new() #8
  %2 = tail call i64 @CT_POLICY_EVAL_CTX_get_time(ptr noundef %1) #8
  %3 = udiv i64 %2, 1000
  %4 = tail call i64 @time(ptr noundef null) #8
  %5 = tail call double @difftime(i64 noundef %4, i64 noundef %3) #9
  %6 = fptosi double %5 to i32
  %7 = tail call i32 @llvm.abs.i32(i32 %6, i1 true)
  %8 = zext nneg i32 %7 to i64
  %9 = tail call i32 @test_time_t_le(ptr noundef nonnull @.str.16, i32 noundef 490, ptr noundef nonnull @.str.53, ptr noundef nonnull @.str.54, i64 noundef %8, i64 noundef 600) #8
  %.not = icmp ne i32 %9, 0
  %spec.select = zext i1 %.not to i32
  tail call void @CT_POLICY_EVAL_CTX_free(ptr noundef %1) #8
  ret i32 %spec.select
}